target datalayout = "e-m:e-p270:32:32-p271:32:32-p272:64:64-i64:64-i128:128-f80:128-n8:16:32:64-S128"
target triple = "x86_64-pc-linux-gnu"

%struct.AVFilterContext = type { ptr, ptr, ptr, ptr, ptr, i32, ptr, ptr, i32, ptr, ptr, i32, i32, ptr, ptr, ptr, ptr, i32, ptr, i32, i32 }
%struct.RemovelogoContext = type { ptr, ptr, ptr, i32, i32, i32, ptr, %struct.FFBoundingBox, ptr, %struct.FFBoundingBox }
%struct.FFBoundingBox = type { i32, i32, i32, i32 }
%struct.AVFilterLink = type { ptr, ptr, ptr, ptr, i32, i32, i32, i32, %struct.AVRational, i32, i32, i32, %struct.AVChannelLayout, %struct.AVRational, ptr, i32, %struct.AVFilterFormatsConfig, %struct.AVFilterFormatsConfig }
%struct.AVChannelLayout = type { i32, i32, %union.anon.1, ptr }
%union.anon.1 = type { i64 }
%struct.AVRational = type { i32, i32 }
%struct.AVFilterFormatsConfig = type { ptr, ptr, ptr, ptr, ptr }

@.str.3 = private unnamed_addr constant [70 x i8] c"Mask image size %dx%d does not match with the input video size %dx%d\0A\00", align 1

; Function Attrs: nounwind uwtable
define internal i32 @config_props_input(ptr noundef %0) #1 {
  %2 = alloca i32, align 4
  %3 = alloca ptr, align 8
  %4 = alloca ptr, align 8
  %5 = alloca ptr, align 8
  %6 = alloca i32, align 4
  store ptr %0, ptr %3, align 8, !tbaa !55
  call void @llvm.lifetime.start.p0(i64 8, ptr %4) #4
  %7 = load ptr, ptr %3, align 8, !tbaa !55
  %8 = getelementptr inbounds nuw %struct.AVFilterLink, ptr %7, i32 0, i32 2
  %9 = load ptr, ptr %8, align 8, !tbaa !59
  store ptr %9, ptr %4, align 8, !tbaa !4
  call void @llvm.lifetime.start.p0(i64 8, ptr %5) #4
  %10 = load ptr, ptr %4, align 8, !tbaa !4
  %11 = getelementptr inbounds nuw %struct.AVFilterContext, ptr %10, i32 0, i32 9
  %12 = load ptr, ptr %11, align 8, !tbaa !9
  store ptr %12, ptr %5, align 8, !tbaa !22
  %13 = load ptr, ptr %3, align 8, !tbaa !55
  %14 = getelementptr inbounds nuw %struct.AVFilterLink, ptr %13, i32 0, i32 6
  %15 = load i32, ptr %14, align 8, !tbaa !68
  %16 = load ptr, ptr %5, align 8, !tbaa !22
  %17 = getelementptr inbounds nuw %struct.RemovelogoContext, ptr %16, i32 0, i32 4
  %18 = load i32, ptr %17, align 4, !tbaa !30
  %19 = icmp ne i32 %15, %18
  br i1 %19, label %28, label %20

20:                                               ; preds = %1
  %21 = load ptr, ptr %3, align 8, !tbaa !55
  %22 = getelementptr inbounds nuw %struct.AVFilterLink, ptr %21, i32 0, i32 7
  %23 = load i32, ptr %22, align 4, !tbaa !69
  %24 = load ptr, ptr %5, align 8, !tbaa !22
  %25 = getelementptr inbounds nuw %struct.RemovelogoContext, ptr %24, i32 0, i32 5
  %26 = load i32, ptr %25, align 8, !tbaa !31
  %27 = icmp ne i32 %23, %26
  br i1 %27, label %28, label %42

28:                                               ; preds = %20, %1
  %29 = load ptr, ptr %4, align 8, !tbaa !4
  %30 = load ptr, ptr %5, align 8, !tbaa !22
  %31 = getelementptr inbounds nuw %struct.RemovelogoContext, ptr %30, i32 0, i32 4
  %32 = load i32, ptr %31, align 4, !tbaa !30
  %33 = load ptr, ptr %5, align 8, !tbaa !22
  %34 = getelementptr inbounds nuw %struct.RemovelogoContext, ptr %33, i32 0, i32 5
  %35 = load i32, ptr %34, align 8, !tbaa !31
  %36 = load ptr, ptr %3, align 8, !tbaa !55
  %37 = getelementptr inbounds nuw %struct.AVFilterLink, ptr %36, i32 0, i32 6
  %38 = load i32, ptr %37, align 8, !tbaa !68
  %39 = load ptr, ptr %3, align 8, !tbaa !55
  %40 = getelementptr inbounds nuw %struct.AVFilterLink, ptr %39, i32 0, i32 7
  %41 = load i32, ptr %40, align 4, !tbaa !69
  call void (ptr, i32, ptr, ...) @av_log(ptr noundef %29, i32 noundef 32, ptr noundef @.str.3, i32 noundef %32, i32 noundef %35, i32 noundef %38, i32 noundef %41)
  store i32 -22, ptr %2, align 4
  store i32 1, ptr %6, align 4
  br label %43

42:                                               ; preds = %20
  store i32 0, ptr %2, align 4
  store i32 1, ptr %6, align 4
  br label %43

43:                                               ; preds = %42, %28
  call void @llvm.lifetime.end.p0(i64 8, ptr %5) #4
  call void @llvm.lifetime.end.p0(i64 8, ptr %4) #4
  %44 = load i32, ptr %2, align 4
  ret i32 %44
}