; Function Attrs: nounwind uwtable
define internal range(i32 -22, 1) i32 @config_props_input(ptr noundef readonly captures(none) %0) #1 {
  %2 = getelementptr inbounds nuw i8, ptr %0, i64 16
  %3 = load ptr, ptr %2, align 8, !tbaa !56
  %4 = getelementptr inbounds nuw i8, ptr %3, i64 72
  %5 = load ptr, ptr %4, align 8, !tbaa !4
  %6 = getelementptr inbounds nuw i8, ptr %0, i64 40
  %7 = load i32, ptr %6, align 8, !tbaa !68
  %8 = getelementptr inbounds nuw i8, ptr %5, i64 28
  %9 = load i32, ptr %8, align 4, !tbaa !27
  %.not = icmp eq i32 %7, %9
  br i1 %.not, label %10, label %._crit_edge

._crit_edge:                                      ; preds = %1
  %.phi.trans.insert = getelementptr inbounds nuw i8, ptr %5, i64 32
  %.pre = load i32, ptr %.phi.trans.insert, align 8, !tbaa !28
  %.phi.trans.insert12 = getelementptr inbounds nuw i8, ptr %0, i64 44
  %.pre13 = load i32, ptr %.phi.trans.insert12, align 4, !tbaa !69
  br label %15

10:                                               ; preds = %1
  %11 = getelementptr inbounds nuw i8, ptr %0, i64 44
  %12 = load i32, ptr %11, align 4, !tbaa !69
  %13 = getelementptr inbounds nuw i8, ptr %5, i64 32
  %14 = load i32, ptr %13, align 8, !tbaa !28
  %.not11 = icmp eq i32 %12, %14
  br i1 %.not11, label %18, label %15

15:                                               ; preds = %._crit_edge, %10
  %16 = phi i32 [ %.pre13, %._crit_edge ], [ %12, %10 ]
  %17 = phi i32 [ %.pre, %._crit_edge ], [ %14, %10 ]
  tail call void (ptr, i32, ptr, ...) @av_log(ptr noundef nonnull %3, i32 noundef 32, ptr noundef nonnull @.str.3, i32 noundef %9, i32 noundef %17, i32 noundef %7, i32 noundef %16) #6
  br label %18

18:                                               ; preds = %10, %15
  %.0 = phi i32 [ -22, %15 ], [ 0, %10 ]
  ret i32 %.0
}